target datalayout = "e-m:e-p270:32:32-p271:32:32-p272:64:64-i64:64-i128:128-f80:128-n8:16:32:64-S128"
target triple = "x86_64-pc-linux-gnu"

%struct.b2Vec2 = type { float, float }
%struct.b2Transform = type { %struct.b2Vec2, %struct.b2Rot }
%struct.b2Rot = type { float, float }
%struct.b2Circle = type { %struct.b2Vec2, float }
%struct.b2AABB = type { %struct.b2Vec2, %struct.b2Vec2 }

; Function Attrs: inlinehint nounwind uwtable
define internal <2 x float> @b2TransformPoint(<2 x float> %0, <2 x float> %1, <2 x float> %2) #6 {
  %4 = alloca %struct.b2Vec2, align 4
  %5 = alloca %struct.b2Transform, align 4
  %6 = alloca %struct.b2Vec2, align 4
  %7 = alloca float, align 4
  %8 = alloca float, align 4
  %9 = getelementptr inbounds nuw { <2 x float>, <2 x float> }, ptr %5, i32 0, i32 0
  store <2 x float> %0, ptr %9, align 4
  %10 = getelementptr inbounds nuw { <2 x float>, <2 x float> }, ptr %5, i32 0, i32 1
  store <2 x float> %1, ptr %10, align 4
  store <2 x float> %2, ptr %6, align 4
  call void @llvm.lifetime.start.p0(i64 4, ptr %7) #9
  %11 = getelementptr inbounds nuw %struct.b2Transform, ptr %5, i32 0, i32 1
  %12 = getelementptr inbounds nuw %struct.b2Rot, ptr %11, i32 0, i32 0
  %13 = load float, ptr %12, align 4, !tbaa !37
  %14 = getelementptr inbounds nuw %struct.b2Vec2, ptr %6, i32 0, i32 0
  %15 = load float, ptr %14, align 4, !tbaa !30
  %16 = fmul float %13, %15
  %17 = getelementptr inbounds nuw %struct.b2Transform, ptr %5, i32 0, i32 1
  %18 = getelementptr inbounds nuw %struct.b2Rot, ptr %17, i32 0, i32 1
  %19 = load float, ptr %18, align 4, !tbaa !40
  %20 = getelementptr inbounds nuw %struct.b2Vec2, ptr %6, i32 0, i32 1
  %21 = load float, ptr %20, align 4, !tbaa !31
  %22 = fmul float %19, %21
  %23 = fsub float %16, %22
  %24 = getelementptr inbounds nuw %struct.b2Transform, ptr %5, i32 0, i32 0
  %25 = getelementptr inbounds nuw %struct.b2Vec2, ptr %24, i32 0, i32 0
  %26 = load float, ptr %25, align 4, !tbaa !41
  %27 = fadd float %23, %26
  store float %27, ptr %7, align 4, !tbaa !12
  call void @llvm.lifetime.start.p0(i64 4, ptr %8) #9
  %28 = getelementptr inbounds nuw %struct.b2Transform, ptr %5, i32 0, i32 1
  %29 = getelementptr inbounds nuw %struct.b2Rot, ptr %28, i32 0, i32 1
  %30 = load float, ptr %29, align 4, !tbaa !40
  %31 = getelementptr inbounds nuw %struct.b2Vec2, ptr %6, i32 0, i32 0
  %32 = load float, ptr %31, align 4, !tbaa !30
  %33 = fmul float %30, %32
  %34 = getelementptr inbounds nuw %struct.b2Transform, ptr %5, i32 0, i32 1
  %35 = getelementptr inbounds nuw %struct.b2Rot, ptr %34, i32 0, i32 0
  %36 = load float, ptr %35, align 4, !tbaa !37
  %37 = getelementptr inbounds nuw %struct.b2Vec2, ptr %6, i32 0, i32 1
  %38 = load float, ptr %37, align 4, !tbaa !31
  %39 = fmul float %36, %38
  %40 = fadd float %33, %39
  %41 = getelementptr inbounds nuw %struct.b2Transform, ptr %5, i32 0, i32 0
  %42 = getelementptr inbounds nuw %struct.b2Vec2, ptr %41, i32 0, i32 1
  %43 = load float, ptr %42, align 4, !tbaa !42
  %44 = fadd float %40, %43
  store float %44, ptr %8, align 4, !tbaa !12
  %45 = getelementptr inbounds nuw %struct.b2Vec2, ptr %4, i32 0, i32 0
  %46 = load float, ptr %7, align 4, !tbaa !12
  store float %46, ptr %45, align 4, !tbaa !30
  %47 = getelementptr inbounds nuw %struct.b2Vec2, ptr %4, i32 0, i32 1
  %48 = load float, ptr %8, align 4, !tbaa !12
  store float %48, ptr %47, align 4, !tbaa !31
  call void @llvm.lifetime.end.p0(i64 4, ptr %8) #9
  call void @llvm.lifetime.end.p0(i64 4, ptr %7) #9
  %49 = load <2 x float>, ptr %4, align 4
  ret <2 x float> %49
}

; Function Attrs: nounwind uwtable
define { <2 x float>, <2 x float> } @b2ComputeCircleAABB(ptr noundef %0, <2 x float> %1, <2 x float> %2) #0 {
  %4 = alloca %struct.b2AABB, align 4
  %5 = alloca %struct.b2Transform, align 4
  %6 = alloca ptr, align 8
  %7 = alloca %struct.b2Vec2, align 4
  %8 = alloca float, align 4
  %9 = getelementptr inbounds nuw { <2 x float>, <2 x float> }, ptr %5, i32 0, i32 0
  store <2 x float> %1, ptr %9, align 4
  %10 = getelementptr inbounds nuw { <2 x float>, <2 x float> }, ptr %5, i32 0, i32 1
  store <2 x float> %2, ptr %10, align 4
  store ptr %0, ptr %6, align 8, !tbaa !50
  call void @llvm.lifetime.start.p0(i64 8, ptr %7) #9
  %11 = load ptr, ptr %6, align 8, !tbaa !50
  %12 = getelementptr inbounds nuw %struct.b2Circle, ptr %11, i32 0, i32 0
  %13 = getelementptr inbounds nuw { <2 x float>, <2 x float> }, ptr %5, i32 0, i32 0
  %14 = load <2 x float>, ptr %13, align 4
  %15 = getelementptr inbounds nuw { <2 x float>, <2 x float> }, ptr %5, i32 0, i32 1
  %16 = load <2 x float>, ptr %15, align 4
  %17 = load <2 x float>, ptr %12, align 4
  %18 = call <2 x float> @b2TransformPoint(<2 x float> %14, <2 x float> %16, <2 x float> %17)
  store <2 x float> %18, ptr %7, align 4
  call void @llvm.lifetime.start.p0(i64 4, ptr %8) #9
  %19 = load ptr, ptr %6, align 8, !tbaa !50
  %20 = getelementptr inbounds nuw %struct.b2Circle, ptr %19, i32 0, i32 1
  %21 = load float, ptr %20, align 4, !tbaa !52
  store float %21, ptr %8, align 4, !tbaa !12
  %22 = getelementptr inbounds nuw %struct.b2AABB, ptr %4, i32 0, i32 0
  %23 = getelementptr inbounds nuw %struct.b2Vec2, ptr %22, i32 0, i32 0
  %24 = getelementptr inbounds nuw %struct.b2Vec2, ptr %7, i32 0, i32 0
  %25 = load float, ptr %24, align 4, !tbaa !30
  %26 = load float, ptr %8, align 4, !tbaa !12
  %27 = fsub float %25, %26
  store float %27, ptr %23, align 4, !tbaa !30
  %28 = getelementptr inbounds nuw %struct.b2Vec2, ptr %22, i32 0, i32 1
  %29 = getelementptr inbounds nuw %struct.b2Vec2, ptr %7, i32 0, i32 1
  %30 = load float, ptr %29, align 4, !tbaa !31
  %31 = load float, ptr %8, align 4, !tbaa !12
  %32 = fsub float %30, %31
  store float %32, ptr %28, align 4, !tbaa !31
  %33 = getelementptr inbounds nuw %struct.b2AABB, ptr %4, i32 0, i32 1
  %34 = getelementptr inbounds nuw %struct.b2Vec2, ptr %33, i32 0, i32 0
  %35 = getelementptr inbounds nuw %struct.b2Vec2, ptr %7, i32 0, i32 0
  %36 = load float, ptr %35, align 4, !tbaa !30
  %37 = load float, ptr %8, align 4, !tbaa !12
  %38 = fadd float %36, %37
  store float %38, ptr %34, align 4, !tbaa !30
  %39 = getelementptr inbounds nuw %struct.b2Vec2, ptr %33, i32 0, i32 1
  %40 = getelementptr inbounds nuw %struct.b2Vec2, ptr %7, i32 0, i32 1
  %41 = load float, ptr %40, align 4, !tbaa !31
  %42 = load float, ptr %8, align 4, !tbaa !12
  %43 = fadd float %41, %42
  store float %43, ptr %39, align 4, !tbaa !31
  call void @llvm.lifetime.end.p0(i64 4, ptr %8) #9
  call void @llvm.lifetime.end.p0(i64 8, ptr %7) #9
  %44 = load { <2 x float>, <2 x float> }, ptr %4, align 4
  ret { <2 x float>, <2 x float> } %44
}