; Function Attrs: mustprogress nofree norecurse nosync nounwind willreturn memory(argmem: read) uwtable
define { <2 x float>, <2 x float> } @b2ComputeCircleAABB(ptr noundef readonly captures(none) %0, <2 x float> %1, <2 x float> %2) local_unnamed_addr #8 {
  %4 = load <2 x float>, ptr %0, align 4
  %.sroa.3.8.vec.extract.i = extractelement <2 x float> %2, i64 0
  %.sroa.0.0.vec.extract.i = extractelement <2 x float> %4, i64 0
  %5 = fmul <2 x float> %2, %4
  %6 = extractelement <2 x float> %5, i64 0
  %.sroa.3.12.vec.extract.i = extractelement <2 x float> %2, i64 1
  %.sroa.0.4.vec.extract.i = extractelement <2 x float> %4, i64 1
  %7 = fmul float %.sroa.3.12.vec.extract.i, %.sroa.0.4.vec.extract.i
  %8 = fsub float %6, %7
  %.sroa.06.0.vec.extract.i = extractelement <2 x float> %1, i64 0
  %9 = fadd float %.sroa.06.0.vec.extract.i, %8
  %10 = fmul float %.sroa.3.12.vec.extract.i, %.sroa.0.0.vec.extract.i
  %11 = fmul float %.sroa.3.8.vec.extract.i, %.sroa.0.4.vec.extract.i
  %12 = fadd float %10, %11
  %.sroa.06.4.vec.extract.i = extractelement <2 x float> %1, i64 1
  %13 = fadd float %.sroa.06.4.vec.extract.i, %12
  %14 = getelementptr inbounds nuw i8, ptr %0, i64 8
  %15 = load float, ptr %14, align 4, !tbaa !42
  %16 = fsub float %9, %15
  %.sroa.011.0.vec.insert = insertelement <2 x float> poison, float %16, i64 0
  %17 = fsub float %13, %15
  %.sroa.011.4.vec.insert = insertelement <2 x float> %.sroa.011.0.vec.insert, float %17, i64 1
  %18 = fadd float %15, %9
  %.sroa.3.8.vec.insert = insertelement <2 x float> poison, float %18, i64 0
  %19 = fadd float %15, %13
  %.sroa.3.12.vec.insert = insertelement <2 x float> %.sroa.3.8.vec.insert, float %19, i64 1
  %.fca.0.insert = insertvalue { <2 x float>, <2 x float> } poison, <2 x float> %.sroa.011.4.vec.insert, 0
  %.fca.1.insert = insertvalue { <2 x float>, <2 x float> } %.fca.0.insert, <2 x float> %.sroa.3.12.vec.insert, 1
  ret { <2 x float>, <2 x float> } %.fca.1.insert
}